target datalayout = "e-m:e-p270:32:32-p271:32:32-p272:64:64-i64:64-i128:128-f80:128-n8:16:32:64-S128"
target triple = "x86_64-pc-linux-gnu"

%"struct.faiss::Index.base" = type <{ ptr, i32, [4 x i8], i64, i8, i8, [2 x i8], i32, float }>
%"struct.faiss::Index" = type <{ ptr, i32, [4 x i8], i64, i8, i8, [2 x i8], i32, float, [4 x i8] }>
%"struct.faiss::IndexRandom" = type { %"struct.faiss::Index.base", i64 }

@_ZTVN5faiss5IndexE = external unnamed_addr constant { [24 x ptr] }, align 8

; Function Attrs: mustprogress nounwind uwtable
define linkonce_odr void @_ZN5faiss5IndexC2ElNS_10MetricTypeE(ptr noundef nonnull align 8 dereferenceable(36) %0, i64 noundef %1, i32 noundef %2) unnamed_addr #0 comdat align 2 {
  %4 = alloca ptr, align 8
  %5 = alloca i64, align 8
  %6 = alloca i32, align 4
  store ptr %0, ptr %4, align 8
  store i64 %1, ptr %5, align 8
  store i32 %2, ptr %6, align 4
  %7 = load ptr, ptr %4, align 8
  store ptr getelementptr inbounds ({ [24 x ptr] }, ptr @_ZTVN5faiss5IndexE, i32 0, i32 0, i32 2), ptr %7, align 8
  %8 = getelementptr inbounds %"struct.faiss::Index", ptr %7, i32 0, i32 1
  %9 = load i64, ptr %5, align 8
  %10 = trunc i64 %9 to i32
  store i32 %10, ptr %8, align 8
  %11 = getelementptr inbounds %"struct.faiss::Index", ptr %7, i32 0, i32 3
  store i64 0, ptr %11, align 8
  %12 = getelementptr inbounds %"struct.faiss::Index", ptr %7, i32 0, i32 4
  store i8 0, ptr %12, align 8
  %13 = getelementptr inbounds %"struct.faiss::Index", ptr %7, i32 0, i32 5
  store i8 1, ptr %13, align 1
  %14 = getelementptr inbounds %"struct.faiss::Index", ptr %7, i32 0, i32 7
  %15 = load i32, ptr %6, align 4
  store i32 %15, ptr %14, align 4
  %16 = getelementptr inbounds %"struct.faiss::Index", ptr %7, i32 0, i32 8
  store float 0.000000e+00, ptr %16, align 8
  ret void
}

; Function Attrs: mustprogress nounwind uwtable
define void @_ZN5faiss11IndexRandomC2ElllNS_10MetricTypeE(ptr noundef nonnull align 8 dereferenceable(48) %0, i64 noundef %1, i64 noundef %2, i64 noundef %3, i32 noundef %4) unnamed_addr #0 align 2 {
  %6 = alloca ptr, align 8
  %7 = alloca i64, align 8
  %8 = alloca i64, align 8
  %9 = alloca i64, align 8
  %10 = alloca i32, align 4
  store ptr %0, ptr %6, align 8
  store i64 %1, ptr %7, align 8
  store i64 %2, ptr %8, align 8
  store i64 %3, ptr %9, align 8
  store i32 %4, ptr %10, align 4
  %11 = load ptr, ptr %6, align 8
  %12 = load i64, ptr %7, align 8
  %13 = load i32, ptr %10, align 4
  call void @_ZN5faiss5IndexC2ElNS_10MetricTypeE(ptr noundef nonnull align 8 dereferenceable(36) %11, i64 noundef %12, i32 noundef %13)
  store ptr getelementptr inbounds ({ [24 x ptr] }, ptr @_ZTVN5faiss11IndexRandomE, i32 0, i32 0, i32 2), ptr %11, align 8
  %14 = getelementptr inbounds %"struct.faiss::IndexRandom", ptr %11, i32 0, i32 1
  %15 = load i64, ptr %9, align 8
  store i64 %15, ptr %14, align 8
  %16 = load i64, ptr %8, align 8
  %17 = getelementptr inbounds %"struct.faiss::Index", ptr %11, i32 0, i32 3
  store i64 %16, ptr %17, align 8
  %18 = getelementptr inbounds %"struct.faiss::Index", ptr %11, i32 0, i32 5
  store i8 1, ptr %18, align 1
  ret void
}