; Function Attrs: mustprogress nofree norecurse nosync nounwind willreturn memory(argmem: write) uwtable
define void @_ZN5faiss11IndexRandomC2ElllNS_10MetricTypeE(ptr nocapture noundef nonnull writeonly align 8 dereferenceable(48) %0, i64 noundef %1, i64 noundef %2, i64 noundef %3, i32 noundef %4) unnamed_addr #5 align 2 {
  %6 = getelementptr inbounds i8, ptr %0, i64 8
  %7 = trunc i64 %1 to i32
  store i32 %7, ptr %6, align 8
  %8 = getelementptr inbounds i8, ptr %0, i64 16
  %9 = getelementptr inbounds i8, ptr %0, i64 24
  store i8 0, ptr %9, align 8
  %10 = getelementptr inbounds i8, ptr %0, i64 25
  %11 = getelementptr inbounds i8, ptr %0, i64 28
  store i32 %4, ptr %11, align 4
  %12 = getelementptr inbounds i8, ptr %0, i64 32
  store float 0.000000e+00, ptr %12, align 8
  store ptr getelementptr inbounds ({ [24 x ptr] }, ptr @_ZTVN5faiss11IndexRandomE, i64 0, i32 0, i64 2), ptr %0, align 8
  %13 = getelementptr inbounds i8, ptr %0, i64 40
  store i64 %3, ptr %13, align 8
  store i64 %2, ptr %8, align 8
  store i8 1, ptr %10, align 1
  ret void
}